; Function Attrs: mustprogress uwtable
define void @_ZN18duckdb_fastpforlib8internal12__fastpack59EPKmPj(ptr noalias noundef %0, ptr noalias noundef initializes((0, 8)) %1) local_unnamed_addr #5 {
  tail call void @llvm.experimental.noalias.scope.decl(metadata !15735)
  tail call void @llvm.experimental.noalias.scope.decl(metadata !15738)
  %3 = load i64, ptr %0, align 8, !tbaa !9, !alias.scope !15735, !noalias !15738
  %4 = trunc i64 %3 to i32
  store i32 %4, ptr %1, align 4, !tbaa !7, !alias.scope !15738, !noalias !15735
  %5 = getelementptr inbounds nuw i8, ptr %1, i64 4
  %6 = lshr i64 %3, 32
  %7 = trunc nuw i64 %6 to i32
  %8 = and i32 %7, 134217727
  store i32 %8, ptr %5, align 4, !tbaa !7, !alias.scope !15738, !noalias !15735
  tail call void @_ZN18duckdb_fastpforlib8internal8UnrollerILt59ELt1EE4PackEPKmPj(ptr noundef nonnull %0, ptr noundef nonnull %5)
  ret void
}